; Function Attrs: nounwind uwtable
define dso_local ptr @copy_decl_list_single(ptr noundef readonly %0) local_unnamed_addr #0 {
  store ptr @copy_struct, ptr getelementptr inbounds (%struct.CopyStruct_, ptr @copy_struct, i64 0, i32 1), align 8
  store i8 1, ptr getelementptr inbounds (%struct.CopyStruct_, ptr @copy_struct, i64 0, i32 3), align 1
  store i8 0, ptr getelementptr inbounds (%struct.CopyStruct_, ptr @copy_struct, i64 0, i32 2), align 8
  %.not.i.i = icmp eq ptr %0, null
  br i1 %.not.i.i, label %copy_decl_list_macro.exit, label %2

2:                                                ; preds = %1
  %3 = getelementptr inbounds i8, ptr %0, i64 -8
  %4 = load i32, ptr %3, align 4
  %.not27.i.i = icmp eq i32 %4, 0
  br i1 %.not27.i.i, label %copy_decl_list_macro.exit, label %.lr.ph.preheader.i.i

.lr.ph.preheader.i.i:                             ; preds = %2
  %wide.trip.count.i.i = zext i32 %4 to i64
  br label %.lr.ph.i.i

.lr.ph.i.i:                                       ; preds = %28, %.lr.ph.preheader.i.i
  %indvars.iv.i.i = phi i64 [ 0, %.lr.ph.preheader.i.i ], [ %indvars.iv.next.i.i, %28 ]
  %.02125.i.i = phi ptr [ null, %.lr.ph.preheader.i.i ], [ %31, %28 ]
  %.not.i.i.i = icmp eq ptr %.02125.i.i, null
  br i1 %.not.i.i.i, label %5, label %8

5:                                                ; preds = %.lr.ph.i.i
  %6 = tail call ptr @calloc_arena(i64 noundef 72) #5
  %7 = getelementptr inbounds i8, ptr %6, i64 4
  store i32 8, ptr %7, align 4
  br label %10

8:                                                ; preds = %.lr.ph.i.i
  %9 = getelementptr inbounds i8, ptr %.02125.i.i, i64 -8
  %.phi.trans.insert.i.i.i = getelementptr inbounds i8, ptr %.02125.i.i, i64 -4
  %.pre.i.i.i = load i32, ptr %.phi.trans.insert.i.i.i, align 4
  br label %10

10:                                               ; preds = %8, %5
  %11 = phi i32 [ %.pre.i.i.i, %8 ], [ 8, %5 ]
  %.0.i.i.i = phi ptr [ %9, %8 ], [ %6, %5 ]
  %12 = load i32, ptr %.0.i.i.i, align 4
  %13 = icmp eq i32 %12, %11
  br i1 %13, label %14, label %28

14:                                               ; preds = %10
  %15 = getelementptr inbounds i8, ptr %.0.i.i.i, i64 4
  %16 = shl i32 %11, 1
  %17 = zext i32 %16 to i64
  %18 = shl nuw nsw i64 %17, 3
  %19 = or disjoint i64 %18, 8
  %20 = tail call ptr @calloc_arena(i64 noundef %19) #5
  %21 = getelementptr inbounds i8, ptr %20, i64 4
  store i32 %16, ptr %21, align 4
  %22 = load i32, ptr %15, align 4
  %23 = zext i32 %22 to i64
  %24 = shl nuw nsw i64 %23, 3
  %25 = add nuw nsw i64 %24, 8
  tail call void @llvm.memcpy.p0.p0.i64(ptr noundef nonnull align 4 dereferenceable(1) %20, ptr noundef nonnull align 4 dereferenceable(1) %.0.i.i.i, i64 %25, i1 false)
  %26 = load i32, ptr %21, align 4
  %27 = shl i32 %26, 1
  store i32 %27, ptr %21, align 4
  %.pre18.i.i.i = load i32, ptr %20, align 4
  br label %28

28:                                               ; preds = %14, %10
  %29 = phi i32 [ %.pre18.i.i.i, %14 ], [ %12, %10 ]
  %.1.i.i.i = phi ptr [ %20, %14 ], [ %.0.i.i.i, %10 ]
  %30 = add i32 %29, 1
  store i32 %30, ptr %.1.i.i.i, align 4
  %31 = getelementptr inbounds i8, ptr %.1.i.i.i, i64 8
  %32 = getelementptr inbounds ptr, ptr %0, i64 %indvars.iv.i.i
  %33 = load ptr, ptr %32, align 8
  %34 = tail call fastcc ptr @copy_decl(ptr noundef nonnull @copy_struct, ptr noundef %33) #7
  %35 = load i32, ptr %.1.i.i.i, align 4
  %36 = add i32 %35, -1
  %37 = zext i32 %36 to i64
  %38 = getelementptr inbounds ptr, ptr %31, i64 %37
  store ptr %34, ptr %38, align 8
  %indvars.iv.next.i.i = add nuw nsw i64 %indvars.iv.i.i, 1
  %exitcond.not.i.i = icmp eq i64 %indvars.iv.next.i.i, %wide.trip.count.i.i
  br i1 %exitcond.not.i.i, label %copy_decl_list_macro.exit, label %.lr.ph.i.i, !llvm.loop !7

copy_decl_list_macro.exit:                        ; preds = %28, %1, %2
  %.021.lcssa.i.i = phi ptr [ null, %2 ], [ null, %1 ], [ %31, %28 ]
  store i8 0, ptr getelementptr inbounds (%struct.CopyStruct_, ptr @copy_struct, i64 0, i32 3), align 1
  ret ptr %.021.lcssa.i.i
}